target datalayout = "e-m:e-p270:32:32-p271:32:32-p272:64:64-i64:64-i128:128-f80:128-n8:16:32:64-S128"
target triple = "x86_64-pc-linux-gnu"

%struct.opj_tcd = type { i32, i32, i32, i32, i32, ptr, ptr, ptr, ptr, i32, i8, ptr, i32, i32, i32, i32, i32, ptr }
%struct.opj_tcd_image = type { ptr }
%struct.opj_image = type { i32, i32, i32, i32, i32, i32, ptr, ptr, i32 }
%struct.opj_tcd_tile = type { i32, i32, i32, i32, i32, ptr, i64, double, [100 x double], i32 }
%struct.opj_tcd_tilecomp = type { i32, i32, i32, i32, i32, i32, i32, ptr, i32, ptr, i32, i64, i64, ptr, i32, i32, i32, i32, i64 }
%struct.opj_tcd_resolution = type { i32, i32, i32, i32, i32, i32, i32, [3 x %struct.opj_tcd_band], i32, i32, i32, i32 }
%struct.opj_tcd_band = type { i32, i32, i32, i32, i32, ptr, i32, i32, float }
%struct.opj_image_comp = type { i32, i32, i32, i32, i32, i32, i32, i32, i32, i32, i32, ptr, i16 }

; Function Attrs: nounwind uwtable
define hidden i32 @opj_tcd_get_decoded_tile_size(ptr noundef %0, i32 noundef %1) #0 {
  %3 = alloca i32, align 4
  %4 = alloca ptr, align 8
  %5 = alloca i32, align 4
  %6 = alloca i32, align 4
  %7 = alloca i32, align 4
  %8 = alloca ptr, align 8
  %9 = alloca ptr, align 8
  %10 = alloca ptr, align 8
  %11 = alloca i32, align 4
  %12 = alloca i32, align 4
  %13 = alloca i32, align 4
  %14 = alloca i32, align 4
  %15 = alloca i32, align 4
  %16 = alloca i32, align 4
  store ptr %0, ptr %4, align 8, !tbaa !7
  store i32 %1, ptr %5, align 4, !tbaa !3
  call void @llvm.lifetime.start.p0(i64 4, ptr %6) #8
  call void @llvm.lifetime.start.p0(i64 4, ptr %7) #8
  store i32 0, ptr %7, align 4, !tbaa !3
  call void @llvm.lifetime.start.p0(i64 8, ptr %8) #8
  store ptr null, ptr %8, align 8, !tbaa !76
  call void @llvm.lifetime.start.p0(i64 8, ptr %9) #8
  store ptr null, ptr %9, align 8, !tbaa !41
  call void @llvm.lifetime.start.p0(i64 8, ptr %10) #8
  store ptr null, ptr %10, align 8, !tbaa !42
  call void @llvm.lifetime.start.p0(i64 4, ptr %11) #8
  call void @llvm.lifetime.start.p0(i64 4, ptr %12) #8
  call void @llvm.lifetime.start.p0(i64 4, ptr %13) #8
  %17 = load ptr, ptr %4, align 8, !tbaa !7
  %18 = getelementptr inbounds nuw %struct.opj_tcd, ptr %17, i32 0, i32 5
  %19 = load ptr, ptr %18, align 8, !tbaa !10
  %20 = getelementptr inbounds nuw %struct.opj_tcd_image, ptr %19, i32 0, i32 0
  %21 = load ptr, ptr %20, align 8, !tbaa !23
  %22 = getelementptr inbounds nuw %struct.opj_tcd_tile, ptr %21, i32 0, i32 5
  %23 = load ptr, ptr %22, align 8, !tbaa !30
  store ptr %23, ptr %9, align 8, !tbaa !41
  %24 = load ptr, ptr %4, align 8, !tbaa !7
  %25 = getelementptr inbounds nuw %struct.opj_tcd, ptr %24, i32 0, i32 6
  %26 = load ptr, ptr %25, align 8, !tbaa !21
  %27 = getelementptr inbounds nuw %struct.opj_image, ptr %26, i32 0, i32 6
  %28 = load ptr, ptr %27, align 8, !tbaa !89
  store ptr %28, ptr %8, align 8, !tbaa !76
  store i32 0, ptr %6, align 4, !tbaa !3
  br label %29

29:                                               ; preds = %143, %2
  %30 = load i32, ptr %6, align 4, !tbaa !3
  %31 = load ptr, ptr %4, align 8, !tbaa !7
  %32 = getelementptr inbounds nuw %struct.opj_tcd, ptr %31, i32 0, i32 6
  %33 = load ptr, ptr %32, align 8, !tbaa !21
  %34 = getelementptr inbounds nuw %struct.opj_image, ptr %33, i32 0, i32 4
  %35 = load i32, ptr %34, align 8, !tbaa !26
  %36 = icmp ult i32 %30, %35
  br i1 %36, label %37, label %146

37:                                               ; preds = %29
  call void @llvm.lifetime.start.p0(i64 4, ptr %14) #8
  call void @llvm.lifetime.start.p0(i64 4, ptr %15) #8
  %38 = load ptr, ptr %8, align 8, !tbaa !76
  %39 = getelementptr inbounds nuw %struct.opj_image_comp, ptr %38, i32 0, i32 6
  %40 = load i32, ptr %39, align 8, !tbaa !136
  %41 = lshr i32 %40, 3
  store i32 %41, ptr %11, align 4, !tbaa !3
  %42 = load ptr, ptr %8, align 8, !tbaa !76
  %43 = getelementptr inbounds nuw %struct.opj_image_comp, ptr %42, i32 0, i32 6
  %44 = load i32, ptr %43, align 8, !tbaa !136
  %45 = and i32 %44, 7
  store i32 %45, ptr %12, align 4, !tbaa !3
  %46 = load i32, ptr %12, align 4, !tbaa !3
  %47 = icmp ne i32 %46, 0
  br i1 %47, label %48, label %51

48:                                               ; preds = %37
  %49 = load i32, ptr %11, align 4, !tbaa !3
  %50 = add i32 %49, 1
  store i32 %50, ptr %11, align 4, !tbaa !3
  br label %51

51:                                               ; preds = %48, %37
  %52 = load i32, ptr %11, align 4, !tbaa !3
  %53 = icmp eq i32 %52, 3
  br i1 %53, label %54, label %55

54:                                               ; preds = %51
  store i32 4, ptr %11, align 4, !tbaa !3
  br label %55

55:                                               ; preds = %54, %51
  %56 = load ptr, ptr %9, align 8, !tbaa !41
  %57 = getelementptr inbounds nuw %struct.opj_tcd_tilecomp, ptr %56, i32 0, i32 7
  %58 = load ptr, ptr %57, align 8, !tbaa !49
  %59 = load ptr, ptr %9, align 8, !tbaa !41
  %60 = getelementptr inbounds nuw %struct.opj_tcd_tilecomp, ptr %59, i32 0, i32 6
  %61 = load i32, ptr %60, align 8, !tbaa !115
  %62 = zext i32 %61 to i64
  %63 = getelementptr inbounds nuw %struct.opj_tcd_resolution, ptr %58, i64 %62
  %64 = getelementptr inbounds %struct.opj_tcd_resolution, ptr %63, i64 -1
  store ptr %64, ptr %10, align 8, !tbaa !42
  %65 = load i32, ptr %5, align 4, !tbaa !3
  %66 = icmp ne i32 %65, 0
  br i1 %66, label %67, label %87

67:                                               ; preds = %55
  %68 = load ptr, ptr %4, align 8, !tbaa !7
  %69 = getelementptr inbounds nuw %struct.opj_tcd, ptr %68, i32 0, i32 16
  %70 = load i32, ptr %69, align 8, !tbaa !174
  %71 = icmp ne i32 %70, 0
  br i1 %71, label %87, label %72

72:                                               ; preds = %67
  %73 = load ptr, ptr %10, align 8, !tbaa !42
  %74 = getelementptr inbounds nuw %struct.opj_tcd_resolution, ptr %73, i32 0, i32 10
  %75 = load i32, ptr %74, align 8, !tbaa !175
  %76 = load ptr, ptr %10, align 8, !tbaa !42
  %77 = getelementptr inbounds nuw %struct.opj_tcd_resolution, ptr %76, i32 0, i32 8
  %78 = load i32, ptr %77, align 8, !tbaa !176
  %79 = sub i32 %75, %78
  store i32 %79, ptr %14, align 4, !tbaa !3
  %80 = load ptr, ptr %10, align 8, !tbaa !42
  %81 = getelementptr inbounds nuw %struct.opj_tcd_resolution, ptr %80, i32 0, i32 11
  %82 = load i32, ptr %81, align 4, !tbaa !177
  %83 = load ptr, ptr %10, align 8, !tbaa !42
  %84 = getelementptr inbounds nuw %struct.opj_tcd_resolution, ptr %83, i32 0, i32 9
  %85 = load i32, ptr %84, align 4, !tbaa !178
  %86 = sub i32 %82, %85
  store i32 %86, ptr %15, align 4, !tbaa !3
  br label %102

87:                                               ; preds = %67, %55
  %88 = load ptr, ptr %10, align 8, !tbaa !42
  %89 = getelementptr inbounds nuw %struct.opj_tcd_resolution, ptr %88, i32 0, i32 2
  %90 = load i32, ptr %89, align 8, !tbaa !123
  %91 = load ptr, ptr %10, align 8, !tbaa !42
  %92 = getelementptr inbounds nuw %struct.opj_tcd_resolution, ptr %91, i32 0, i32 0
  %93 = load i32, ptr %92, align 8, !tbaa !120
  %94 = sub nsw i32 %90, %93
  store i32 %94, ptr %14, align 4, !tbaa !3
  %95 = load ptr, ptr %10, align 8, !tbaa !42
  %96 = getelementptr inbounds nuw %struct.opj_tcd_resolution, ptr %95, i32 0, i32 3
  %97 = load i32, ptr %96, align 4, !tbaa !124
  %98 = load ptr, ptr %10, align 8, !tbaa !42
  %99 = getelementptr inbounds nuw %struct.opj_tcd_resolution, ptr %98, i32 0, i32 1
  %100 = load i32, ptr %99, align 4, !tbaa !122
  %101 = sub nsw i32 %97, %100
  store i32 %101, ptr %15, align 4, !tbaa !3
  br label %102

102:                                              ; preds = %87, %72
  %103 = load i32, ptr %15, align 4, !tbaa !3
  %104 = icmp ugt i32 %103, 0
  br i1 %104, label %105, label %111

105:                                              ; preds = %102
  %106 = load i32, ptr %14, align 4, !tbaa !3
  %107 = udiv i32 -1, %106
  %108 = load i32, ptr %15, align 4, !tbaa !3
  %109 = icmp ult i32 %107, %108
  br i1 %109, label %110, label %111

110:                                              ; preds = %105
  store i32 -1, ptr %3, align 4
  store i32 1, ptr %16, align 4
  br label %140

111:                                              ; preds = %105, %102
  %112 = load i32, ptr %14, align 4, !tbaa !3
  %113 = load i32, ptr %15, align 4, !tbaa !3
  %114 = mul i32 %112, %113
  store i32 %114, ptr %13, align 4, !tbaa !3
  %115 = load i32, ptr %11, align 4, !tbaa !3
  %116 = icmp ne i32 %115, 0
  br i1 %116, label %117, label %123

117:                                              ; preds = %111
  %118 = load i32, ptr %11, align 4, !tbaa !3
  %119 = udiv i32 -1, %118
  %120 = load i32, ptr %13, align 4, !tbaa !3
  %121 = icmp ult i32 %119, %120
  br i1 %121, label %122, label %123

122:                                              ; preds = %117
  store i32 -1, ptr %3, align 4
  store i32 1, ptr %16, align 4
  br label %140

123:                                              ; preds = %117, %111
  %124 = load i32, ptr %11, align 4, !tbaa !3
  %125 = load i32, ptr %13, align 4, !tbaa !3
  %126 = mul i32 %125, %124
  store i32 %126, ptr %13, align 4, !tbaa !3
  %127 = load i32, ptr %13, align 4, !tbaa !3
  %128 = load i32, ptr %7, align 4, !tbaa !3
  %129 = sub i32 -1, %128
  %130 = icmp ugt i32 %127, %129
  br i1 %130, label %131, label %132

131:                                              ; preds = %123
  store i32 -1, ptr %3, align 4
  store i32 1, ptr %16, align 4
  br label %140

132:                                              ; preds = %123
  %133 = load i32, ptr %13, align 4, !tbaa !3
  %134 = load i32, ptr %7, align 4, !tbaa !3
  %135 = add i32 %134, %133
  store i32 %135, ptr %7, align 4, !tbaa !3
  %136 = load ptr, ptr %8, align 8, !tbaa !76
  %137 = getelementptr inbounds nuw %struct.opj_image_comp, ptr %136, i32 1
  store ptr %137, ptr %8, align 8, !tbaa !76
  %138 = load ptr, ptr %9, align 8, !tbaa !41
  %139 = getelementptr inbounds nuw %struct.opj_tcd_tilecomp, ptr %138, i32 1
  store ptr %139, ptr %9, align 8, !tbaa !41
  store i32 0, ptr %16, align 4
  br label %140

140:                                              ; preds = %132, %131, %122, %110
  call void @llvm.lifetime.end.p0(i64 4, ptr %15) #8
  call void @llvm.lifetime.end.p0(i64 4, ptr %14) #8
  %141 = load i32, ptr %16, align 4
  switch i32 %141, label %148 [
    i32 0, label %142
  ]

142:                                              ; preds = %140
  br label %143

143:                                              ; preds = %142
  %144 = load i32, ptr %6, align 4, !tbaa !3
  %145 = add i32 %144, 1
  store i32 %145, ptr %6, align 4, !tbaa !3
  br label %29, !llvm.loop !179

146:                                              ; preds = %29
  %147 = load i32, ptr %7, align 4, !tbaa !3
  store i32 %147, ptr %3, align 4
  store i32 1, ptr %16, align 4
  br label %148

148:                                              ; preds = %146, %140
  call void @llvm.lifetime.end.p0(i64 4, ptr %13) #8
  call void @llvm.lifetime.end.p0(i64 4, ptr %12) #8
  call void @llvm.lifetime.end.p0(i64 4, ptr %11) #8
  call void @llvm.lifetime.end.p0(i64 8, ptr %10) #8
  call void @llvm.lifetime.end.p0(i64 8, ptr %9) #8
  call void @llvm.lifetime.end.p0(i64 8, ptr %8) #8
  call void @llvm.lifetime.end.p0(i64 4, ptr %7) #8
  call void @llvm.lifetime.end.p0(i64 4, ptr %6) #8
  %149 = load i32, ptr %3, align 4
  ret i32 %149
}