; Function Attrs: nofree norecurse nosync nounwind memory(read, inaccessiblemem: none) uwtable
define hidden i32 @opj_tcd_get_decoded_tile_size(ptr noundef readonly captures(none) %0, i32 noundef %1) local_unnamed_addr #6 {
  %3 = getelementptr inbounds nuw i8, ptr %0, i64 32
  %4 = load ptr, ptr %3, align 8, !tbaa !15
  %5 = getelementptr inbounds nuw i8, ptr %4, i64 16
  %6 = load i32, ptr %5, align 8, !tbaa !20
  %.not72 = icmp eq i32 %6, 0
  br i1 %.not72, label %.thread, label %.lr.ph

.lr.ph:                                           ; preds = %2
  %7 = getelementptr inbounds nuw i8, ptr %4, i64 24
  %8 = load ptr, ptr %7, align 8, !tbaa !69
  %9 = getelementptr inbounds nuw i8, ptr %0, i64 24
  %10 = load ptr, ptr %9, align 8, !tbaa !3
  %11 = load ptr, ptr %10, align 8, !tbaa !17
  %12 = getelementptr inbounds nuw i8, ptr %11, i64 24
  %13 = load ptr, ptr %12, align 8, !tbaa !24
  %.not52 = icmp eq i32 %1, 0
  %14 = getelementptr inbounds nuw i8, ptr %0, i64 88
  br label %15

15:                                               ; preds = %.lr.ph, %56
  %.04465 = phi ptr [ %13, %.lr.ph ], [ %59, %56 ]
  %.04664 = phi ptr [ %8, %.lr.ph ], [ %58, %56 ]
  %.04863 = phi i32 [ 0, %.lr.ph ], [ %57, %56 ]
  %.05062 = phi i32 [ 0, %.lr.ph ], [ %60, %56 ]
  %16 = getelementptr inbounds nuw i8, ptr %.04664, i64 24
  %17 = load i32, ptr %16, align 8, !tbaa !113
  %18 = lshr i32 %17, 3
  %19 = and i32 %17, 7
  %.not = icmp ne i32 %19, 0
  %20 = zext i1 %.not to i32
  %spec.select = add nuw nsw i32 %18, %20
  %21 = icmp eq i32 %spec.select, 3
  %spec.store.select = select i1 %21, i32 4, i32 %spec.select
  %22 = getelementptr inbounds nuw i8, ptr %.04465, i64 32
  %23 = load ptr, ptr %22, align 8, !tbaa !33
  %24 = getelementptr inbounds nuw i8, ptr %.04465, i64 24
  %25 = load i32, ptr %24, align 8, !tbaa !95
  %26 = zext i32 %25 to i64
  %27 = getelementptr inbounds nuw %struct.opj_tcd_resolution, ptr %23, i64 %26
  %28 = getelementptr inbounds i8, ptr %27, i64 -192
  br i1 %.not52, label %37, label %29

29:                                               ; preds = %15
  %30 = load i32, ptr %14, align 8, !tbaa !155
  %.not53 = icmp eq i32 %30, 0
  br i1 %.not53, label %31, label %37

31:                                               ; preds = %29
  %32 = getelementptr inbounds i8, ptr %27, i64 -8
  %33 = load i32, ptr %32, align 8, !tbaa !156
  %34 = getelementptr inbounds i8, ptr %27, i64 -16
  %35 = load i32, ptr %34, align 8, !tbaa !157
  %36 = sub i32 %33, %35
  br label %42

37:                                               ; preds = %29, %15
  %38 = getelementptr inbounds i8, ptr %27, i64 -184
  %39 = load i32, ptr %38, align 8, !tbaa !99
  %40 = load i32, ptr %28, align 8, !tbaa !96
  %41 = sub nsw i32 %39, %40
  br label %42

42:                                               ; preds = %37, %31
  %.sink = phi i64 [ -180, %37 ], [ -4, %31 ]
  %.sink75 = phi i64 [ -188, %37 ], [ -12, %31 ]
  %.041 = phi i32 [ %41, %37 ], [ %36, %31 ]
  %43 = getelementptr inbounds i8, ptr %27, i64 %.sink
  %44 = load i32, ptr %43, align 4, !tbaa !101
  %45 = getelementptr inbounds i8, ptr %27, i64 %.sink75
  %46 = load i32, ptr %45, align 4, !tbaa !101
  %47 = sub i32 %44, %46
  %.not54 = icmp eq i32 %44, %46
  br i1 %.not54, label %49, label %48

48:                                               ; preds = %42
  %mul = tail call { i32, i1 } @llvm.umul.with.overflow.i32(i32 %.041, i32 %47)
  %mul.ov = extractvalue { i32, i1 } %mul, 1
  br i1 %mul.ov, label %.thread, label %49

49:                                               ; preds = %48, %42
  %50 = mul i32 %47, %.041
  %.not55 = icmp eq i32 %spec.store.select, 0
  br i1 %.not55, label %52, label %51

51:                                               ; preds = %49
  %mul56 = tail call { i32, i1 } @llvm.umul.with.overflow.i32(i32 %spec.store.select, i32 %50)
  %mul.ov57 = extractvalue { i32, i1 } %mul56, 1
  br i1 %mul.ov57, label %.thread, label %52

52:                                               ; preds = %51, %49
  %53 = mul i32 %50, %spec.store.select
  %54 = xor i32 %.04863, -1
  %55 = icmp ugt i32 %53, %54
  br i1 %55, label %.thread, label %56

56:                                               ; preds = %52
  %57 = add i32 %53, %.04863
  %58 = getelementptr inbounds nuw i8, ptr %.04664, i64 64
  %59 = getelementptr inbounds nuw i8, ptr %.04465, i64 112
  %60 = add nuw i32 %.05062, 1
  %exitcond.not = icmp eq i32 %60, %6
  br i1 %exitcond.not, label %.thread, label %15, !llvm.loop !158

.thread:                                          ; preds = %56, %48, %51, %52, %2
  %.2 = phi i32 [ 0, %2 ], [ -1, %52 ], [ -1, %51 ], [ -1, %48 ], [ %57, %56 ]
  ret i32 %.2
}